target datalayout = "e-m:e-p270:32:32-p271:32:32-p272:64:64-i64:64-i128:128-f80:128-n8:16:32:64-S128"
target triple = "x86_64-pc-linux-gnu"

%struct.FFTabInitData = type { ptr, [4 x i32] }

@sr_tabs_init_once = internal global [19 x i32] zeroinitializer, align 16
@nptwo_tabs_init_once = internal global [3 x i32] zeroinitializer, align 4
@ff_ctz_c.debruijn_ctz32 = internal constant [32 x i8] c"\00\01\1C\02\1D\0E\18\03\1E\16\14\0F\19\11\04\08\1F\1B\0D\17\15\13\10\07\1A\0C\12\06\0B\05\0A\09", align 16

; Function Attrs: alwaysinline nounwind willreturn memory(none) uwtable
define internal i32 @ff_ctz_c(i32 noundef %0) #2 {
  %2 = alloca i32, align 4
  store i32 %0, ptr %2, align 4, !tbaa !4
  %3 = load i32, ptr %2, align 4, !tbaa !4
  %4 = load i32, ptr %2, align 4, !tbaa !4
  %5 = sub i32 0, %4
  %6 = and i32 %3, %5
  %7 = mul i32 %6, 125613361
  %8 = lshr i32 %7, 27
  %9 = zext i32 %8 to i64
  %10 = getelementptr inbounds nuw [32 x i8], ptr @ff_ctz_c.debruijn_ctz32, i64 0, i64 %9
  %11 = load i8, ptr %10, align 1, !tbaa !16
  %12 = zext i8 %11 to i32
  ret i32 %12
}

; Function Attrs: cold nounwind optsize uwtable
define void @ff_tx_init_tabs_float(i32 noundef %0) #0 {
  %2 = alloca i32, align 4
  %3 = alloca i32, align 4
  %4 = alloca i32, align 4
  %5 = alloca i32, align 4
  %6 = alloca i32, align 4
  %7 = alloca i32, align 4
  %8 = alloca i32, align 4
  %9 = alloca i32, align 4
  store i32 %0, ptr %2, align 4, !tbaa !4
  call void @llvm.lifetime.start.p0(i64 4, ptr %3) #10
  %10 = load i32, ptr %2, align 4, !tbaa !4
  %11 = call i32 @ff_ctz_c(i32 noundef %10) #11
  store i32 %11, ptr %3, align 4, !tbaa !4
  %12 = load i32, ptr %3, align 4, !tbaa !4
  %13 = icmp ne i32 %12, 0
  br i1 %13, label %14, label %38

14:                                               ; preds = %1
  call void @llvm.lifetime.start.p0(i64 4, ptr %4) #10
  %15 = load i32, ptr %3, align 4, !tbaa !4
  %16 = sub nsw i32 %15, 3
  store i32 %16, ptr %4, align 4, !tbaa !4
  call void @llvm.lifetime.start.p0(i64 4, ptr %5) #10
  store i32 0, ptr %5, align 4, !tbaa !4
  br label %17

17:                                               ; preds = %31, %14
  %18 = load i32, ptr %5, align 4, !tbaa !4
  %19 = load i32, ptr %4, align 4, !tbaa !4
  %20 = icmp sle i32 %18, %19
  br i1 %20, label %22, label %21

21:                                               ; preds = %17
  call void @llvm.lifetime.end.p0(i64 4, ptr %5) #10
  br label %34

22:                                               ; preds = %17
  %23 = load i32, ptr %5, align 4, !tbaa !4
  %24 = sext i32 %23 to i64
  %25 = getelementptr inbounds [19 x i32], ptr @sr_tabs_init_once, i64 0, i64 %24
  %26 = load i32, ptr %5, align 4, !tbaa !4
  %27 = sext i32 %26 to i64
  %28 = getelementptr inbounds [19 x ptr], ptr @sr_tabs_init_funcs, i64 0, i64 %27
  %29 = load ptr, ptr %28, align 8, !tbaa !8
  %30 = call i32 @pthread_once(ptr noundef %25, ptr noundef %29)
  br label %31

31:                                               ; preds = %22
  %32 = load i32, ptr %5, align 4, !tbaa !4
  %33 = add nsw i32 %32, 1
  store i32 %33, ptr %5, align 4, !tbaa !4
  br label %17, !llvm.loop !10

34:                                               ; preds = %21
  %35 = load i32, ptr %3, align 4, !tbaa !4
  %36 = load i32, ptr %2, align 4, !tbaa !4
  %37 = ashr i32 %36, %35
  store i32 %37, ptr %2, align 4, !tbaa !4
  call void @llvm.lifetime.end.p0(i64 4, ptr %4) #10
  br label %38

38:                                               ; preds = %34, %1
  call void @llvm.lifetime.start.p0(i64 4, ptr %6) #10
  store i32 0, ptr %6, align 4, !tbaa !4
  br label %39

39:                                               ; preds = %83, %38
  %40 = load i32, ptr %6, align 4, !tbaa !4
  %41 = sext i32 %40 to i64
  %42 = icmp ult i64 %41, 3
  br i1 %42, label %44, label %43

43:                                               ; preds = %39
  store i32 5, ptr %7, align 4
  br label %86

44:                                               ; preds = %39
  call void @llvm.lifetime.start.p0(i64 4, ptr %8) #10
  call void @llvm.lifetime.start.p0(i64 4, ptr %9) #10
  store i32 0, ptr %9, align 4, !tbaa !4
  %45 = load i32, ptr %2, align 4, !tbaa !4
  %46 = icmp sle i32 %45, 1
  br i1 %46, label %47, label %48

47:                                               ; preds = %44
  store i32 1, ptr %7, align 4
  br label %80

48:                                               ; preds = %44
  br label %49

49:                                               ; preds = %65, %48
  %50 = load i32, ptr %6, align 4, !tbaa !4
  %51 = sext i32 %50 to i64
  %52 = getelementptr inbounds [3 x %struct.FFTabInitData], ptr @nptwo_tabs_init_data, i64 0, i64 %51
  %53 = getelementptr inbounds nuw %struct.FFTabInitData, ptr %52, i32 0, i32 1
  %54 = load i32, ptr %9, align 4, !tbaa !4
  %55 = add nsw i32 %54, 1
  store i32 %55, ptr %9, align 4, !tbaa !4
  %56 = sext i32 %54 to i64
  %57 = getelementptr inbounds [4 x i32], ptr %53, i64 0, i64 %56
  %58 = load i32, ptr %57, align 4, !tbaa !4
  store i32 %58, ptr %8, align 4, !tbaa !4
  %59 = icmp ne i32 %58, 0
  br i1 %59, label %60, label %79

60:                                               ; preds = %49
  %61 = load i32, ptr %8, align 4, !tbaa !4
  %62 = load i32, ptr %2, align 4, !tbaa !4
  %63 = srem i32 %61, %62
  %64 = icmp ne i32 %63, 0
  br i1 %64, label %65, label %66

65:                                               ; preds = %60
  br label %49, !llvm.loop !12

66:                                               ; preds = %60
  %67 = load i32, ptr %6, align 4, !tbaa !4
  %68 = sext i32 %67 to i64
  %69 = getelementptr inbounds [3 x i32], ptr @nptwo_tabs_init_once, i64 0, i64 %68
  %70 = load i32, ptr %6, align 4, !tbaa !4
  %71 = sext i32 %70 to i64
  %72 = getelementptr inbounds [3 x %struct.FFTabInitData], ptr @nptwo_tabs_init_data, i64 0, i64 %71
  %73 = getelementptr inbounds nuw %struct.FFTabInitData, ptr %72, i32 0, i32 0
  %74 = load ptr, ptr %73, align 8, !tbaa !13
  %75 = call i32 @pthread_once(ptr noundef %69, ptr noundef %74)
  %76 = load i32, ptr %8, align 4, !tbaa !4
  %77 = load i32, ptr %2, align 4, !tbaa !4
  %78 = sdiv i32 %77, %76
  store i32 %78, ptr %2, align 4, !tbaa !4
  br label %79

79:                                               ; preds = %66, %49
  store i32 0, ptr %7, align 4
  br label %80

80:                                               ; preds = %79, %47
  call void @llvm.lifetime.end.p0(i64 4, ptr %9) #10
  call void @llvm.lifetime.end.p0(i64 4, ptr %8) #10
  %81 = load i32, ptr %7, align 4
  switch i32 %81, label %86 [
    i32 0, label %82
  ]

82:                                               ; preds = %80
  br label %83

83:                                               ; preds = %82
  %84 = load i32, ptr %6, align 4, !tbaa !4
  %85 = add nsw i32 %84, 1
  store i32 %85, ptr %6, align 4, !tbaa !4
  br label %39, !llvm.loop !15

86:                                               ; preds = %80, %43
  call void @llvm.lifetime.end.p0(i64 4, ptr %6) #10
  %87 = load i32, ptr %7, align 4
  switch i32 %87, label %89 [
    i32 5, label %88
  ]

88:                                               ; preds = %86
  store i32 0, ptr %7, align 4
  br label %89

89:                                               ; preds = %88, %86
  call void @llvm.lifetime.end.p0(i64 4, ptr %3) #10
  %90 = load i32, ptr %7, align 4
  switch i32 %90, label %92 [
    i32 0, label %91
    i32 1, label %91
  ]

91:                                               ; preds = %89, %89
  ret void

92:                                               ; preds = %89
  unreachable
}